target datalayout = "e-m:e-p270:32:32-p271:32:32-p272:64:64-i64:64-i128:128-f80:128-n8:16:32:64-S128"
target triple = "x86_64-pc-linux-gnu"

%struct.VP8BitReader = type { i64, i32, i32, ptr, ptr, ptr, i32 }

; Function Attrs: nounwind uwtable
define hidden void @VP8BitReaderSetBuffer(ptr noundef %0, ptr noundef %1, i64 noundef %2) #0 {
  %4 = alloca ptr, align 8
  %5 = alloca ptr, align 8
  %6 = alloca i64, align 8
  store ptr %0, ptr %4, align 8
  store ptr %1, ptr %5, align 8
  store i64 %2, ptr %6, align 8
  %7 = load ptr, ptr %5, align 8
  %8 = load ptr, ptr %4, align 8
  %9 = getelementptr inbounds %struct.VP8BitReader, ptr %8, i32 0, i32 3
  store ptr %7, ptr %9, align 8
  %10 = load ptr, ptr %5, align 8
  %11 = load i64, ptr %6, align 8
  %12 = getelementptr inbounds i8, ptr %10, i64 %11
  %13 = load ptr, ptr %4, align 8
  %14 = getelementptr inbounds %struct.VP8BitReader, ptr %13, i32 0, i32 4
  store ptr %12, ptr %14, align 8
  %15 = load i64, ptr %6, align 8
  %16 = icmp uge i64 %15, 8
  br i1 %16, label %17, label %23

17:                                               ; preds = %3
  %18 = load ptr, ptr %5, align 8
  %19 = load i64, ptr %6, align 8
  %20 = getelementptr inbounds i8, ptr %18, i64 %19
  %21 = getelementptr inbounds i8, ptr %20, i64 -8
  %22 = getelementptr inbounds i8, ptr %21, i64 1
  br label %25

23:                                               ; preds = %3
  %24 = load ptr, ptr %5, align 8
  br label %25

25:                                               ; preds = %23, %17
  %26 = phi ptr [ %22, %17 ], [ %24, %23 ]
  %27 = load ptr, ptr %4, align 8
  %28 = getelementptr inbounds %struct.VP8BitReader, ptr %27, i32 0, i32 5
  store ptr %26, ptr %28, align 8
  ret void
}