; Function Attrs: mustprogress nofree norecurse nosync nounwind willreturn memory(argmem: write) uwtable
define hidden void @VP8BitReaderSetBuffer(ptr nocapture noundef writeonly %0, ptr noundef %1, i64 noundef %2) local_unnamed_addr #0 {
  %4 = getelementptr inbounds i8, ptr %0, i64 16
  store ptr %1, ptr %4, align 8
  %5 = getelementptr inbounds i8, ptr %1, i64 %2
  %6 = getelementptr inbounds i8, ptr %0, i64 24
  store ptr %5, ptr %6, align 8
  %7 = icmp ugt i64 %2, 7
  %8 = getelementptr inbounds i8, ptr %5, i64 -7
  %9 = select i1 %7, ptr %8, ptr %1
  %10 = getelementptr inbounds i8, ptr %0, i64 32
  store ptr %9, ptr %10, align 8
  ret void
}